target datalayout = "e-m:e-p270:32:32-p271:32:32-p272:64:64-i64:64-i128:128-f80:128-n8:16:32:64-S128"
target triple = "x86_64-pc-linux-gnu"

%struct.mbedtls_psa_pake_operation_t = type { i32, ptr, i64, i32, [336 x i8], i64, i64, %union.anon }
%union.anon = type { %struct.mbedtls_ecjpake_context }
%struct.mbedtls_ecjpake_context = type { i32, %struct.mbedtls_ecp_group, i32, i32, %struct.mbedtls_ecp_point, %struct.mbedtls_ecp_point, %struct.mbedtls_ecp_point, %struct.mbedtls_ecp_point, %struct.mbedtls_ecp_point, %struct.mbedtls_mpi, %struct.mbedtls_mpi, %struct.mbedtls_mpi }
%struct.mbedtls_ecp_group = type { i32, %struct.mbedtls_mpi, %struct.mbedtls_mpi, %struct.mbedtls_mpi, %struct.mbedtls_ecp_point, %struct.mbedtls_mpi, i64, i64, i32, ptr, ptr, ptr, ptr, ptr, i64 }
%struct.mbedtls_ecp_point = type { %struct.mbedtls_mpi, %struct.mbedtls_mpi, %struct.mbedtls_mpi }
%struct.mbedtls_mpi = type { ptr, i16, i16 }

; Function Attrs: nounwind uwtable
define internal i32 @mbedtls_ecjpake_to_psa_error(i32 noundef %0) #0 {
  %2 = alloca i32, align 4
  %3 = alloca i32, align 4
  store i32 %0, ptr %3, align 4, !tbaa !9
  %4 = load i32, ptr %3, align 4, !tbaa !9
  switch i32 %4, label %9 [
    i32 -4, label %5
    i32 -20352, label %5
    i32 -19584, label %5
    i32 -19968, label %5
    i32 -8, label %6
    i32 -20224, label %6
    i32 -20608, label %7
    i32 -110, label %8
  ]

5:                                                ; preds = %1, %1, %1, %1
  store i32 -153, ptr %2, align 4
  br label %10

6:                                                ; preds = %1, %1
  store i32 -138, ptr %2, align 4
  br label %10

7:                                                ; preds = %1
  store i32 -134, ptr %2, align 4
  br label %10

8:                                                ; preds = %1
  store i32 -151, ptr %2, align 4
  br label %10

9:                                                ; preds = %1
  store i32 -132, ptr %2, align 4
  br label %10

10:                                               ; preds = %9, %8, %7, %6, %5
  %11 = load i32, ptr %2, align 4
  ret i32 %11
}

; Function Attrs: nounwind uwtable
define hidden i32 @mbedtls_psa_pake_get_implicit_key(ptr noundef %0, ptr noundef %1, i64 noundef %2, ptr noundef %3) #0 {
  %5 = alloca i32, align 4
  %6 = alloca ptr, align 8
  %7 = alloca ptr, align 8
  %8 = alloca i64, align 8
  %9 = alloca ptr, align 8
  %10 = alloca i32, align 4
  %11 = alloca i32, align 4
  store ptr %0, ptr %6, align 8, !tbaa !3
  store ptr %1, ptr %7, align 8, !tbaa !13
  store i64 %2, ptr %8, align 8, !tbaa !11
  store ptr %3, ptr %9, align 8, !tbaa !29
  call void @llvm.lifetime.start.p0(i64 4, ptr %10) #9
  store i32 -110, ptr %10, align 4, !tbaa !9
  %12 = load ptr, ptr %6, align 8, !tbaa !3
  %13 = getelementptr inbounds nuw %struct.mbedtls_psa_pake_operation_t, ptr %12, i32 0, i32 0
  %14 = load i32, ptr %13, align 8, !tbaa !21
  %15 = icmp eq i32 %14, 167772416
  br i1 %15, label %16, label %29

16:                                               ; preds = %4
  %17 = load ptr, ptr %6, align 8, !tbaa !3
  %18 = getelementptr inbounds nuw %struct.mbedtls_psa_pake_operation_t, ptr %17, i32 0, i32 7
  %19 = load ptr, ptr %7, align 8, !tbaa !13
  %20 = load i64, ptr %8, align 8, !tbaa !11
  %21 = load ptr, ptr %9, align 8, !tbaa !29
  %22 = call i32 @mbedtls_ecjpake_write_shared_key(ptr noundef %18, ptr noundef %19, i64 noundef %20, ptr noundef %21, ptr noundef @mbedtls_psa_get_random, ptr noundef null)
  store i32 %22, ptr %10, align 4, !tbaa !9
  %23 = load i32, ptr %10, align 4, !tbaa !9
  %24 = icmp ne i32 %23, 0
  br i1 %24, label %25, label %28

25:                                               ; preds = %16
  %26 = load i32, ptr %10, align 4, !tbaa !9
  %27 = call i32 @mbedtls_ecjpake_to_psa_error(i32 noundef %26)
  store i32 %27, ptr %5, align 4
  store i32 1, ptr %11, align 4
  br label %30

28:                                               ; preds = %16
  store i32 0, ptr %5, align 4
  store i32 1, ptr %11, align 4
  br label %30

29:                                               ; preds = %4
  store i32 -134, ptr %5, align 4
  store i32 1, ptr %11, align 4
  br label %30

30:                                               ; preds = %29, %28, %25
  call void @llvm.lifetime.end.p0(i64 4, ptr %10) #9
  %31 = load i32, ptr %5, align 4
  ret i32 %31
}