; Function Attrs: nounwind uwtable
define hidden range(i32 -153, 1) i32 @mbedtls_psa_pake_get_implicit_key(ptr noundef %0, ptr noundef %1, i64 noundef %2, ptr noundef %3) local_unnamed_addr #0 {
  %5 = load i32, ptr %0, align 8, !tbaa !16
  %6 = icmp eq i32 %5, 167772416
  br i1 %6, label %7, label %mbedtls_ecjpake_to_psa_error.exit

7:                                                ; preds = %4
  %8 = getelementptr inbounds nuw i8, ptr %0, i64 384
  %9 = tail call i32 @mbedtls_ecjpake_write_shared_key(ptr noundef nonnull %8, ptr noundef %1, i64 noundef %2, ptr noundef %3, ptr noundef nonnull @mbedtls_psa_get_random, ptr noundef null) #8
  switch i32 %9, label %13 [
    i32 0, label %mbedtls_ecjpake_to_psa_error.exit
    i32 -4, label %mbedtls_ecjpake_to_psa_error.exit.fold.split
    i32 -20352, label %mbedtls_ecjpake_to_psa_error.exit.fold.split
    i32 -19584, label %mbedtls_ecjpake_to_psa_error.exit.fold.split
    i32 -19968, label %mbedtls_ecjpake_to_psa_error.exit.fold.split
    i32 -8, label %10
    i32 -20224, label %10
    i32 -20608, label %11
    i32 -110, label %12
  ]

10:                                               ; preds = %7, %7
  br label %mbedtls_ecjpake_to_psa_error.exit

11:                                               ; preds = %7
  br label %mbedtls_ecjpake_to_psa_error.exit

12:                                               ; preds = %7
  br label %mbedtls_ecjpake_to_psa_error.exit

13:                                               ; preds = %7
  br label %mbedtls_ecjpake_to_psa_error.exit

mbedtls_ecjpake_to_psa_error.exit.fold.split:     ; preds = %7, %7, %7, %7
  br label %mbedtls_ecjpake_to_psa_error.exit

mbedtls_ecjpake_to_psa_error.exit:                ; preds = %7, %mbedtls_ecjpake_to_psa_error.exit.fold.split, %13, %12, %11, %10, %4
  %.0 = phi i32 [ %9, %7 ], [ -134, %4 ], [ -132, %13 ], [ -151, %12 ], [ -134, %11 ], [ -138, %10 ], [ -153, %mbedtls_ecjpake_to_psa_error.exit.fold.split ]
  ret i32 %.0
}